; ModuleID = '24/1905.c'
source_filename = "24/1905.c"
target datalayout = "e-m:e-p270:32:32-p271:32:32-p272:64:64-i64:64-f80:128-n8:16:32:64-S128"
target triple = "x86_64-pc-linux-gnu"

@.str = private unnamed_addr constant [3 x i8] c"%c\00", align 1
@.str.1 = private unnamed_addr constant [4 x i8] c"%c\0A\00", align 1

; Function Attrs: noinline nounwind uwtable
define dso_local i32 @main() #0 {
  %1 = alloca i32, align 4
  %2 = alloca [1000 x i8], align 16
  %3 = alloca i32, align 4
  %4 = alloca i32, align 4
  %5 = alloca i32, align 4
  %6 = alloca i32, align 4
  %7 = alloca i32, align 4
  %8 = alloca [200 x i32], align 16
  %9 = alloca [200 x i32], align 16
  %10 = alloca i32, align 4
  %11 = alloca i32, align 4
  %12 = alloca i32, align 4
  store i32 0, i32* %1, align 4
  %13 = getelementptr inbounds [1000 x i8], [1000 x i8]* %2, i64 0, i64 0
  %14 = call i32 (i8*, ...) bitcast (i32 (...)* @gets to i32 (i8*, ...)*)(i8* %13)
  %15 = getelementptr inbounds [1000 x i8], [1000 x i8]* %2, i64 0, i64 0
  %16 = call i64 @strlen(i8* %15) #3
  %17 = trunc i64 %16 to i32
  store i32 %17, i32* %3, align 4
  store i32 0, i32* %6, align 4
  store i32 0, i32* %7, align 4
  store i32 0, i32* %4, align 4
  br label %18

18:                                               ; preds = %58, %0
  %19 = load i32, i32* %4, align 4
  %20 = load i32, i32* %3, align 4
  %21 = icmp sle i32 %19, %20
  br i1 %21, label %22, label %61

22:                                               ; preds = %18
  %23 = load i32, i32* %6, align 4
  %24 = add nsw i32 %23, 1
  store i32 %24, i32* %6, align 4
  %25 = load i32, i32* %4, align 4
  %26 = sext i32 %25 to i64
  %27 = getelementptr inbounds [1000 x i8], [1000 x i8]* %2, i64 0, i64 %26
  %28 = load i8, i8* %27, align 1
  %29 = sext i8 %28 to i32
  %30 = icmp eq i32 %29, 32
  br i1 %30, label %45, label %31

31:                                               ; preds = %22
  %32 = load i32, i32* %4, align 4
  %33 = sext i32 %32 to i64
  %34 = getelementptr inbounds [1000 x i8], [1000 x i8]* %2, i64 0, i64 %33
  %35 = load i8, i8* %34, align 1
  %36 = sext i8 %35 to i32
  %37 = icmp eq i32 %36, 0
  br i1 %37, label %45, label %38

38:                                               ; preds = %31
  %39 = load i32, i32* %4, align 4
  %40 = sext i32 %39 to i64
  %41 = getelementptr inbounds [1000 x i8], [1000 x i8]* %2, i64 0, i64 %40
  %42 = load i8, i8* %41, align 1
  %43 = sext i8 %42 to i32
  %44 = icmp eq i32 %43, 44
  br i1 %44, label %45, label %57

45:                                               ; preds = %38, %31, %22
  %46 = load i32, i32* %6, align 4
  %47 = sub nsw i32 %46, 1
  %48 = load i32, i32* %7, align 4
  %49 = sext i32 %48 to i64
  %50 = getelementptr inbounds [200 x i32], [200 x i32]* %8, i64 0, i64 %49
  store i32 %47, i32* %50, align 4
  %51 = load i32, i32* %4, align 4
  %52 = load i32, i32* %7, align 4
  %53 = sext i32 %52 to i64
  %54 = getelementptr inbounds [200 x i32], [200 x i32]* %9, i64 0, i64 %53
  store i32 %51, i32* %54, align 4
  %55 = load i32, i32* %7, align 4
  %56 = add nsw i32 %55, 1
  store i32 %56, i32* %7, align 4
  store i32 0, i32* %6, align 4
  br label %57

57:                                               ; preds = %45, %38
  br label %58

58:                                               ; preds = %57
  %59 = load i32, i32* %4, align 4
  %60 = add nsw i32 %59, 1
  store i32 %60, i32* %4, align 4
  br label %18

61:                                               ; preds = %18
  store i32 0, i32* %11, align 4
  store i32 0, i32* %12, align 4
  store i32 0, i32* %4, align 4
  br label %62

62:                                               ; preds = %97, %61
  %63 = load i32, i32* %4, align 4
  %64 = load i32, i32* %7, align 4
  %65 = icmp slt i32 %63, %64
  br i1 %65, label %66, label %100

66:                                               ; preds = %62
  %67 = load i32, i32* %4, align 4
  %68 = sext i32 %67 to i64
  %69 = getelementptr inbounds [200 x i32], [200 x i32]* %8, i64 0, i64 %68
  %70 = load i32, i32* %69, align 4
  %71 = load i32, i32* %11, align 4
  %72 = sext i32 %71 to i64
  %73 = getelementptr inbounds [200 x i32], [200 x i32]* %8, i64 0, i64 %72
  %74 = load i32, i32* %73, align 4
  %75 = icmp sgt i32 %70, %74
  br i1 %75, label %76, label %78

76:                                               ; preds = %66
  %77 = load i32, i32* %4, align 4
  store i32 %77, i32* %11, align 4
  br label %78

78:                                               ; preds = %76, %66
  %79 = load i32, i32* %4, align 4
  %80 = sext i32 %79 to i64
  %81 = getelementptr inbounds [200 x i32], [200 x i32]* %8, i64 0, i64 %80
  %82 = load i32, i32* %81, align 4
  %83 = load i32, i32* %12, align 4
  %84 = sext i32 %83 to i64
  %85 = getelementptr inbounds [200 x i32], [200 x i32]* %8, i64 0, i64 %84
  %86 = load i32, i32* %85, align 4
  %87 = icmp slt i32 %82, %86
  br i1 %87, label %88, label %96

88:                                               ; preds = %78
  %89 = load i32, i32* %4, align 4
  %90 = sext i32 %89 to i64
  %91 = getelementptr inbounds [200 x i32], [200 x i32]* %8, i64 0, i64 %90
  %92 = load i32, i32* %91, align 4
  %93 = icmp ne i32 %92, 0
  br i1 %93, label %94, label %96

94:                                               ; preds = %88
  %95 = load i32, i32* %4, align 4
  store i32 %95, i32* %12, align 4
  br label %96

96:                                               ; preds = %94, %88, %78
  br label %97

97:                                               ; preds = %96
  %98 = load i32, i32* %4, align 4
  %99 = add nsw i32 %98, 1
  store i32 %99, i32* %4, align 4
  br label %62

100:                                              ; preds = %62
  %101 = load i32, i32* %11, align 4
  %102 = sext i32 %101 to i64
  %103 = getelementptr inbounds [200 x i32], [200 x i32]* %9, i64 0, i64 %102
  %104 = load i32, i32* %103, align 4
  %105 = load i32, i32* %11, align 4
  %106 = sext i32 %105 to i64
  %107 = getelementptr inbounds [200 x i32], [200 x i32]* %8, i64 0, i64 %106
  %108 = load i32, i32* %107, align 4
  %109 = sub nsw i32 %104, %108
  store i32 %109, i32* %4, align 4
  br label %110

110:                                              ; preds = %148, %100
  %111 = load i32, i32* %4, align 4
  %112 = load i32, i32* %11, align 4
  %113 = sext i32 %112 to i64
  %114 = getelementptr inbounds [200 x i32], [200 x i32]* %9, i64 0, i64 %113
  %115 = load i32, i32* %114, align 4
  %116 = icmp slt i32 %111, %115
  br i1 %116, label %117, label %151

117:                                              ; preds = %110
  %118 = load i32, i32* %4, align 4
  %119 = load i32, i32* %11, align 4
  %120 = sext i32 %119 to i64
  %121 = getelementptr inbounds [200 x i32], [200 x i32]* %9, i64 0, i64 %120
  %122 = load i32, i32* %121, align 4
  %123 = sub nsw i32 %122, 1
  %124 = icmp ne i32 %118, %123
  br i1 %124, label %125, label %132

125:                                              ; preds = %117
  %126 = load i32, i32* %4, align 4
  %127 = sext i32 %126 to i64
  %128 = getelementptr inbounds [1000 x i8], [1000 x i8]* %2, i64 0, i64 %127
  %129 = load i8, i8* %128, align 1
  %130 = sext i8 %129 to i32
  %131 = call i32 (i8*, ...) @printf(i8* getelementptr inbounds ([3 x i8], [3 x i8]* @.str, i64 0, i64 0), i32 %130)
  br label %132

132:                                              ; preds = %125, %117
  %133 = load i32, i32* %4, align 4
  %134 = load i32, i32* %11, align 4
  %135 = sext i32 %134 to i64
  %136 = getelementptr inbounds [200 x i32], [200 x i32]* %9, i64 0, i64 %135
  %137 = load i32, i32* %136, align 4
  %138 = sub nsw i32 %137, 1
  %139 = icmp eq i32 %133, %138
  br i1 %139, label %140, label %147

140:                                              ; preds = %132
  %141 = load i32, i32* %4, align 4
  %142 = sext i32 %141 to i64
  %143 = getelementptr inbounds [1000 x i8], [1000 x i8]* %2, i64 0, i64 %142
  %144 = load i8, i8* %143, align 1
  %145 = sext i8 %144 to i32
  %146 = call i32 (i8*, ...) @printf(i8* getelementptr inbounds ([4 x i8], [4 x i8]* @.str.1, i64 0, i64 0), i32 %145)
  br label %147

147:                                              ; preds = %140, %132
  br label %148

148:                                              ; preds = %147
  %149 = load i32, i32* %4, align 4
  %150 = add nsw i32 %149, 1
  store i32 %150, i32* %4, align 4
  br label %110

151:                                              ; preds = %110
  %152 = load i32, i32* %12, align 4
  %153 = sext i32 %152 to i64
  %154 = getelementptr inbounds [200 x i32], [200 x i32]* %9, i64 0, i64 %153
  %155 = load i32, i32* %154, align 4
  %156 = load i32, i32* %12, align 4
  %157 = sext i32 %156 to i64
  %158 = getelementptr inbounds [200 x i32], [200 x i32]* %8, i64 0, i64 %157
  %159 = load i32, i32* %158, align 4
  %160 = sub nsw i32 %155, %159
  store i32 %160, i32* %4, align 4
  br label %161

161:                                              ; preds = %199, %151
  %162 = load i32, i32* %4, align 4
  %163 = load i32, i32* %12, align 4
  %164 = sext i32 %163 to i64
  %165 = getelementptr inbounds [200 x i32], [200 x i32]* %9, i64 0, i64 %164
  %166 = load i32, i32* %165, align 4
  %167 = icmp slt i32 %162, %166
  br i1 %167, label %168, label %202

168:                                              ; preds = %161
  %169 = load i32, i32* %4, align 4
  %170 = load i32, i32* %12, align 4
  %171 = sext i32 %170 to i64
  %172 = getelementptr inbounds [200 x i32], [200 x i32]* %9, i64 0, i64 %171
  %173 = load i32, i32* %172, align 4
  %174 = sub nsw i32 %173, 1
  %175 = icmp ne i32 %169, %174
  br i1 %175, label %176, label %183

176:                                              ; preds = %168
  %177 = load i32, i32* %4, align 4
  %178 = sext i32 %177 to i64
  %179 = getelementptr inbounds [1000 x i8], [1000 x i8]* %2, i64 0, i64 %178
  %180 = load i8, i8* %179, align 1
  %181 = sext i8 %180 to i32
  %182 = call i32 (i8*, ...) @printf(i8* getelementptr inbounds ([3 x i8], [3 x i8]* @.str, i64 0, i64 0), i32 %181)
  br label %183

183:                                              ; preds = %176, %168
  %184 = load i32, i32* %4, align 4
  %185 = load i32, i32* %12, align 4
  %186 = sext i32 %185 to i64
  %187 = getelementptr inbounds [200 x i32], [200 x i32]* %9, i64 0, i64 %186
  %188 = load i32, i32* %187, align 4
  %189 = sub nsw i32 %188, 1
  %190 = icmp eq i32 %184, %189
  br i1 %190, label %191, label %198

191:                                              ; preds = %183
  %192 = load i32, i32* %4, align 4
  %193 = sext i32 %192 to i64
  %194 = getelementptr inbounds [1000 x i8], [1000 x i8]* %2, i64 0, i64 %193
  %195 = load i8, i8* %194, align 1
  %196 = sext i8 %195 to i32
  %197 = call i32 (i8*, ...) @printf(i8* getelementptr inbounds ([4 x i8], [4 x i8]* @.str.1, i64 0, i64 0), i32 %196)
  br label %198

198:                                              ; preds = %191, %183
  br label %199

199:                                              ; preds = %198
  %200 = load i32, i32* %4, align 4
  %201 = add nsw i32 %200, 1
  store i32 %201, i32* %4, align 4
  br label %161

202:                                              ; preds = %161
  ret i32 0
}

declare dso_local i32 @gets(...) #1

; Function Attrs: nounwind readonly
declare dso_local i64 @strlen(i8*) #2

declare dso_local i32 @printf(i8*, ...) #1


!llvm.module.flags = !{!0}
!llvm.ident = !{!1}

!0 = !{i32 1, !"wchar_size", i32 4}
!1 = !{!"clang version 10.0.0-4ubuntu1 "}
